target datalayout = "e-m:e-p270:32:32-p271:32:32-p272:64:64-i64:64-i128:128-f80:128-n8:16:32:64-S128"
target triple = "x86_64-pc-linux-gnu"

%class.btVector3 = type { [4 x float] }
%class.btAlignedObjectArray.2 = type <{ [4 x i8], i32, i32, [4 x i8], ptr, i8, [7 x i8] }>
%class.btDeformableMultiBodyDynamicsWorld = type { %class.btMultiBodyDynamicsWorld, ptr, %class.btAlignedObjectArray.24, i32, i8, i8, i8, %struct.btSoftBodyWorldInfo, float, i32, i8, i8, i8, ptr, ptr }
%class.btMultiBodyDynamicsWorld = type { %class.btDiscreteDynamicsWorld.base, [4 x i8], %class.btAlignedObjectArray.14, %class.btAlignedObjectArray.16, %class.btAlignedObjectArray.16, ptr, ptr, %class.btAlignedObjectArray.18, %class.btAlignedObjectArray.2, %class.btAlignedObjectArray.18, %class.btAlignedObjectArray.2, %class.btAlignedObjectArray.20, %class.btAlignedObjectArray.2, %class.btAlignedObjectArray.22 }
%class.btDiscreteDynamicsWorld.base = type <{ %class.btDynamicsWorld, %class.btAlignedObjectArray.6, ptr, ptr, ptr, %class.btAlignedObjectArray.6, %class.btAlignedObjectArray.8, %class.btVector3, float, float, i8, i8, i8, i8, [4 x i8], %class.btAlignedObjectArray.10, i32, i8, [3 x i8], %class.btAlignedObjectArray.12, %class.btSpinMutex }>
%class.btDynamicsWorld = type { %class.btCollisionWorld.base, ptr, ptr, ptr, %struct.btContactSolverInfo }
%class.btCollisionWorld.base = type <{ ptr, %class.btAlignedObjectArray.4, ptr, %struct.btDispatcherInfo, ptr, ptr, i8 }>
%class.btAlignedObjectArray.4 = type <{ [4 x i8], i32, i32, [4 x i8], ptr, i8, [7 x i8] }>
%struct.btDispatcherInfo = type <{ float, i32, i32, float, i8, [7 x i8], ptr, i8, i8, i8, i8, float, i8, [3 x i8], float, i8, [7 x i8] }>
%struct.btContactSolverInfo = type { %struct.btContactSolverInfoData }
%struct.btContactSolverInfoData = type { float, float, float, float, float, i32, float, float, float, float, float, float, float, float, float, float, i32, float, float, float, float, float, i32, i32, i32, float, float, float, float, i8, i8, i32, i32 }
%class.btAlignedObjectArray.6 = type <{ [4 x i8], i32, i32, [4 x i8], ptr, i8, [7 x i8] }>
%class.btAlignedObjectArray.8 = type <{ [4 x i8], i32, i32, [4 x i8], ptr, i8, [7 x i8] }>
%class.btAlignedObjectArray.10 = type <{ [4 x i8], i32, i32, [4 x i8], ptr, i8, [7 x i8] }>
%class.btAlignedObjectArray.12 = type <{ [4 x i8], i32, i32, [4 x i8], ptr, i8, [7 x i8] }>
%class.btSpinMutex = type { i32 }
%class.btAlignedObjectArray.14 = type <{ [4 x i8], i32, i32, [4 x i8], ptr, i8, [7 x i8] }>
%class.btAlignedObjectArray.16 = type <{ [4 x i8], i32, i32, [4 x i8], ptr, i8, [7 x i8] }>
%class.btAlignedObjectArray.18 = type <{ [4 x i8], i32, i32, [4 x i8], ptr, i8, [7 x i8] }>
%class.btAlignedObjectArray.20 = type <{ [4 x i8], i32, i32, [4 x i8], ptr, i8, [7 x i8] }>
%class.btAlignedObjectArray.22 = type <{ [4 x i8], i32, i32, [4 x i8], ptr, i8, [7 x i8] }>
%class.btAlignedObjectArray.24 = type <{ [4 x i8], i32, i32, [4 x i8], ptr, i8, [7 x i8] }>
%struct.btSoftBodyWorldInfo = type { float, float, float, float, %class.btVector3, ptr, ptr, %class.btVector3, %struct.btSparseSdf }
%struct.btSparseSdf = type { %class.btAlignedObjectArray.26, float, float, i32, i32, i32, i32, i32, [4 x i8] }
%class.btAlignedObjectArray.26 = type <{ [4 x i8], i32, i32, [4 x i8], ptr, i8, [7 x i8] }>
%class.CProfileSample = type { i8 }
%class.btDiscreteDynamicsWorld = type <{ %class.btDynamicsWorld, %class.btAlignedObjectArray.6, ptr, ptr, ptr, %class.btAlignedObjectArray.6, %class.btAlignedObjectArray.8, %class.btVector3, float, float, i8, i8, i8, i8, [4 x i8], %class.btAlignedObjectArray.10, i32, i8, [3 x i8], %class.btAlignedObjectArray.12, %class.btSpinMutex, [4 x i8] }>
%class.btCollisionWorld = type <{ ptr, %class.btAlignedObjectArray.4, ptr, %struct.btDispatcherInfo, ptr, ptr, i8, [7 x i8] }>

@.str.11 = private unnamed_addr constant [53 x i8] c"btDeformableMultiBodyDynamicsWorld::solveConstraints\00", align 1

; Function Attrs: mustprogress nounwind uwtable
define linkonce_odr dso_local noundef ptr @_ZN16btCollisionWorld13getDispatcherEv(ptr noundef nonnull align 8 dereferenceable(121) %0) #1 comdat align 2 {
  %2 = alloca ptr, align 8
  store ptr %0, ptr %2, align 8, !tbaa !423
  %3 = load ptr, ptr %2, align 8
  %4 = getelementptr inbounds nuw %class.btCollisionWorld, ptr %3, i32 0, i32 2
  %5 = load ptr, ptr %4, align 8, !tbaa !425
  ret ptr %5
}

; Function Attrs: mustprogress nounwind uwtable
define linkonce_odr dso_local noundef ptr @_ZN23btDiscreteDynamicsWorld17getCollisionWorldEv(ptr noundef nonnull align 8 dereferenceable(508) %0) #1 comdat align 2 {
  %2 = alloca ptr, align 8
  store ptr %0, ptr %2, align 8, !tbaa !421
  %3 = load ptr, ptr %2, align 8
  ret ptr %3
}

; Function Attrs: inlinehint mustprogress nounwind uwtable
define linkonce_odr dso_local noundef i32 @_ZNK20btAlignedObjectArrayIP17btTypedConstraintE4sizeEv(ptr noundef nonnull align 8 dereferenceable(25) %0) #6 comdat align 2 {
  %2 = alloca ptr, align 8
  store ptr %0, ptr %2, align 8, !tbaa !417
  %3 = load ptr, ptr %2, align 8
  %4 = getelementptr inbounds nuw %class.btAlignedObjectArray.6, ptr %3, i32 0, i32 1
  %5 = load i32, ptr %4, align 4, !tbaa !420
  ret i32 %5
}

; Function Attrs: inlinehint mustprogress nounwind uwtable
define linkonce_odr dso_local noundef nonnull align 8 dereferenceable(8) ptr @_ZN20btAlignedObjectArrayIP17btTypedConstraintEixEi(ptr noundef nonnull align 8 dereferenceable(25) %0, i32 noundef %1) #6 comdat align 2 {
  %3 = alloca ptr, align 8
  %4 = alloca i32, align 4
  store ptr %0, ptr %3, align 8, !tbaa !417
  store i32 %1, ptr %4, align 4, !tbaa !9
  %5 = load ptr, ptr %3, align 8
  %6 = getelementptr inbounds nuw %class.btAlignedObjectArray.6, ptr %5, i32 0, i32 4
  %7 = load ptr, ptr %6, align 8, !tbaa !419
  %8 = load i32, ptr %4, align 4, !tbaa !9
  %9 = sext i32 %8 to i64
  %10 = getelementptr inbounds ptr, ptr %7, i64 %9
  ret ptr %10
}

; Function Attrs: inlinehint mustprogress nounwind uwtable
define linkonce_odr dso_local noundef nonnull align 8 dereferenceable(8) ptr @_ZN20btAlignedObjectArrayIP21btMultiBodyConstraintEixEi(ptr noundef nonnull align 8 dereferenceable(25) %0, i32 noundef %1) #6 comdat align 2 {
  %3 = alloca ptr, align 8
  %4 = alloca i32, align 4
  store ptr %0, ptr %3, align 8, !tbaa !413
  store i32 %1, ptr %4, align 4, !tbaa !9
  %5 = load ptr, ptr %3, align 8
  %6 = getelementptr inbounds nuw %class.btAlignedObjectArray.16, ptr %5, i32 0, i32 4
  %7 = load ptr, ptr %6, align 8, !tbaa !416
  %8 = load i32, ptr %4, align 4, !tbaa !9
  %9 = sext i32 %8 to i64
  %10 = getelementptr inbounds ptr, ptr %7, i64 %9
  ret ptr %10
}

; Function Attrs: inlinehint mustprogress nounwind uwtable
define linkonce_odr dso_local noundef i32 @_ZNK20btAlignedObjectArrayIP21btMultiBodyConstraintE4sizeEv(ptr noundef nonnull align 8 dereferenceable(25) %0) #6 comdat align 2 {
  %2 = alloca ptr, align 8
  store ptr %0, ptr %2, align 8, !tbaa !413
  %3 = load ptr, ptr %2, align 8
  %4 = getelementptr inbounds nuw %class.btAlignedObjectArray.16, ptr %3, i32 0, i32 1
  %5 = load i32, ptr %4, align 4, !tbaa !415
  ret i32 %5
}

; Function Attrs: mustprogress uwtable
define dso_local void @_ZN34btDeformableMultiBodyDynamicsWorld16setupConstraintsEv(ptr noundef nonnull align 8 dereferenceable(1056) %0) #7 align 2 {
  %2 = alloca ptr, align 8
  %3 = alloca ptr, align 8
  %4 = alloca ptr, align 8
  store ptr %0, ptr %2, align 8, !tbaa !58
  %5 = load ptr, ptr %2, align 8
  %6 = getelementptr inbounds nuw %class.btDeformableMultiBodyDynamicsWorld, ptr %5, i32 0, i32 1
  %7 = load ptr, ptr %6, align 8, !tbaa !70
  %8 = getelementptr inbounds nuw %class.btDynamicsWorld, ptr %5, i32 0, i32 4
  %9 = load ptr, ptr %7, align 8, !tbaa !51
  %10 = getelementptr inbounds ptr, ptr %9, i64 19
  %11 = load ptr, ptr %10, align 8
  call void %11(ptr noundef nonnull align 8 dereferenceable(609) %7, ptr noundef nonnull align 4 dereferenceable(128) %8)
  call void @_ZN34btDeformableMultiBodyDynamicsWorld15sortConstraintsEv(ptr noundef nonnull align 8 dereferenceable(1056) %5)
  call void @llvm.lifetime.start.p0(i64 8, ptr %3) #4
  %12 = getelementptr inbounds nuw %class.btMultiBodyDynamicsWorld, ptr %5, i32 0, i32 4
  %13 = call noundef i32 @_ZNK20btAlignedObjectArrayIP21btMultiBodyConstraintE4sizeEv(ptr noundef nonnull align 8 dereferenceable(25) %12)
  %14 = icmp ne i32 %13, 0
  br i1 %14, label %15, label %18

15:                                               ; preds = %1
  %16 = getelementptr inbounds nuw %class.btMultiBodyDynamicsWorld, ptr %5, i32 0, i32 4
  %17 = call noundef nonnull align 8 dereferenceable(8) ptr @_ZN20btAlignedObjectArrayIP21btMultiBodyConstraintEixEi(ptr noundef nonnull align 8 dereferenceable(25) %16, i32 noundef 0)
  br label %19

18:                                               ; preds = %1
  br label %19

19:                                               ; preds = %18, %15
  %20 = phi ptr [ %17, %15 ], [ null, %18 ]
  store ptr %20, ptr %3, align 8, !tbaa !399
  call void @llvm.lifetime.start.p0(i64 8, ptr %4) #4
  %21 = load ptr, ptr %5, align 8, !tbaa !51
  %22 = getelementptr inbounds ptr, ptr %21, i64 27
  %23 = load ptr, ptr %22, align 8
  %24 = call noundef i32 %23(ptr noundef nonnull align 8 dereferenceable(508) %5)
  %25 = icmp ne i32 %24, 0
  br i1 %25, label %26, label %29

26:                                               ; preds = %19
  %27 = getelementptr inbounds nuw %class.btDiscreteDynamicsWorld, ptr %5, i32 0, i32 1
  %28 = call noundef nonnull align 8 dereferenceable(8) ptr @_ZN20btAlignedObjectArrayIP17btTypedConstraintEixEi(ptr noundef nonnull align 8 dereferenceable(25) %27, i32 noundef 0)
  br label %30

29:                                               ; preds = %19
  br label %30

30:                                               ; preds = %29, %26
  %31 = phi ptr [ %28, %26 ], [ null, %29 ]
  store ptr %31, ptr %4, align 8, !tbaa !400
  %32 = getelementptr inbounds nuw %class.btDeformableMultiBodyDynamicsWorld, ptr %5, i32 0, i32 13
  %33 = load ptr, ptr %32, align 8, !tbaa !141
  %34 = getelementptr inbounds nuw %class.btDynamicsWorld, ptr %5, i32 0, i32 4
  %35 = load ptr, ptr %4, align 8, !tbaa !400
  %36 = getelementptr inbounds nuw %class.btDiscreteDynamicsWorld, ptr %5, i32 0, i32 1
  %37 = call noundef i32 @_ZNK20btAlignedObjectArrayIP17btTypedConstraintE4sizeEv(ptr noundef nonnull align 8 dereferenceable(25) %36)
  %38 = load ptr, ptr %3, align 8, !tbaa !399
  %39 = getelementptr inbounds nuw %class.btMultiBodyDynamicsWorld, ptr %5, i32 0, i32 4
  %40 = call noundef i32 @_ZNK20btAlignedObjectArrayIP21btMultiBodyConstraintE4sizeEv(ptr noundef nonnull align 8 dereferenceable(25) %39)
  %41 = load ptr, ptr %5, align 8, !tbaa !51
  %42 = getelementptr inbounds ptr, ptr %41, i64 5
  %43 = load ptr, ptr %42, align 8
  %44 = call noundef ptr %43(ptr noundef nonnull align 8 dereferenceable(121) %5)
  %45 = load ptr, ptr %33, align 8, !tbaa !51
  %46 = getelementptr inbounds ptr, ptr %45, i64 3
  %47 = load ptr, ptr %46, align 8
  call void %47(ptr noundef nonnull align 8 dereferenceable(264) %33, ptr noundef %34, ptr noundef %35, i32 noundef %37, ptr noundef %38, i32 noundef %40, ptr noundef %44)
  %48 = getelementptr inbounds nuw %class.btDiscreteDynamicsWorld, ptr %5, i32 0, i32 4
  %49 = load ptr, ptr %48, align 8, !tbaa !401
  %50 = call noundef ptr @_ZN23btDiscreteDynamicsWorld17getCollisionWorldEv(ptr noundef nonnull align 8 dereferenceable(508) %5)
  %51 = call noundef ptr @_ZN16btCollisionWorld13getDispatcherEv(ptr noundef nonnull align 8 dereferenceable(121) %50)
  %52 = call noundef ptr @_ZN23btDiscreteDynamicsWorld17getCollisionWorldEv(ptr noundef nonnull align 8 dereferenceable(508) %5)
  call void @_ZN25btSimulationIslandManager12buildIslandsEP12btDispatcherP16btCollisionWorld(ptr noundef nonnull align 8 dereferenceable(105) %49, ptr noundef %51, ptr noundef %52)
  call void @llvm.lifetime.end.p0(i64 8, ptr %4) #4
  call void @llvm.lifetime.end.p0(i64 8, ptr %3) #4
  ret void
}

; Function Attrs: mustprogress uwtable
define dso_local void @_ZN34btDeformableMultiBodyDynamicsWorld16solveConstraintsEf(ptr noundef nonnull align 8 dereferenceable(1056) %0, float noundef %1) #7 align 2 personality ptr @__gxx_personality_v0 {
  %3 = alloca ptr, align 8
  %4 = alloca float, align 4
  %5 = alloca %class.CProfileSample, align 1
  %6 = alloca ptr, align 8
  %7 = alloca i32, align 4
  store ptr %0, ptr %3, align 8, !tbaa !58
  store float %1, ptr %4, align 4, !tbaa !12
  %8 = load ptr, ptr %3, align 8
  call void @llvm.lifetime.start.p0(i64 1, ptr %5) #4
  call void @_ZN14CProfileSampleC1EPKc(ptr noundef nonnull align 1 dereferenceable(1) %5, ptr noundef @.str.11)
  %9 = getelementptr inbounds nuw %class.btDeformableMultiBodyDynamicsWorld, ptr %8, i32 0, i32 1
  %10 = load ptr, ptr %9, align 8, !tbaa !70
  invoke void @_ZN22btDeformableBodySolver14backupVelocityEv(ptr noundef nonnull align 8 dereferenceable(609) %10)
          to label %11 unwind label %24

11:                                               ; preds = %2
  invoke void @_ZN34btDeformableMultiBodyDynamicsWorld16setupConstraintsEv(ptr noundef nonnull align 8 dereferenceable(1056) %8)
          to label %12 unwind label %24

12:                                               ; preds = %11
  invoke void @_ZN34btDeformableMultiBodyDynamicsWorld23solveContactConstraintsEv(ptr noundef nonnull align 8 dereferenceable(1056) %8)
          to label %13 unwind label %24

13:                                               ; preds = %12
  %14 = getelementptr inbounds nuw %class.btDeformableMultiBodyDynamicsWorld, ptr %8, i32 0, i32 12
  %15 = load i8, ptr %14, align 2, !tbaa !139, !range !178, !noundef !179
  %16 = trunc i8 %15 to i1
  br i1 %16, label %17, label %28

17:                                               ; preds = %13
  %18 = getelementptr inbounds nuw %class.btDeformableMultiBodyDynamicsWorld, ptr %8, i32 0, i32 1
  %19 = load ptr, ptr %18, align 8, !tbaa !70
  %20 = load ptr, ptr %19, align 8, !tbaa !51
  %21 = getelementptr inbounds ptr, ptr %20, i64 28
  %22 = load ptr, ptr %21, align 8
  invoke void %22(ptr noundef nonnull align 8 dereferenceable(609) %19)
          to label %23 unwind label %24

23:                                               ; preds = %17
  br label %35

24:                                               ; preds = %44, %35, %28, %17, %12, %11, %2
  %25 = landingpad { ptr, i32 }
          cleanup
  %26 = extractvalue { ptr, i32 } %25, 0
  store ptr %26, ptr %6, align 8
  %27 = extractvalue { ptr, i32 } %25, 1
  store i32 %27, ptr %7, align 4
  call void @_ZN14CProfileSampleD1Ev(ptr noundef nonnull align 1 dereferenceable(1) %5) #4
  call void @llvm.lifetime.end.p0(i64 1, ptr %5) #4
  br label %52

28:                                               ; preds = %13
  %29 = getelementptr inbounds nuw %class.btDeformableMultiBodyDynamicsWorld, ptr %8, i32 0, i32 1
  %30 = load ptr, ptr %29, align 8, !tbaa !70
  %31 = load ptr, ptr %30, align 8, !tbaa !51
  %32 = getelementptr inbounds ptr, ptr %31, i64 29
  %33 = load ptr, ptr %32, align 8
  invoke void %33(ptr noundef nonnull align 8 dereferenceable(609) %30)
          to label %34 unwind label %24

34:                                               ; preds = %28
  br label %35

35:                                               ; preds = %34, %23
  %36 = getelementptr inbounds nuw %class.btDeformableMultiBodyDynamicsWorld, ptr %8, i32 0, i32 1
  %37 = load ptr, ptr %36, align 8, !tbaa !70
  %38 = getelementptr inbounds nuw %class.btDeformableMultiBodyDynamicsWorld, ptr %8, i32 0, i32 10
  %39 = load i8, ptr %38, align 8, !tbaa !137, !range !178, !noundef !179
  %40 = trunc i8 %39 to i1
  %41 = load ptr, ptr %37, align 8, !tbaa !51
  %42 = getelementptr inbounds ptr, ptr %41, i64 20
  %43 = load ptr, ptr %42, align 8
  invoke void %43(ptr noundef nonnull align 8 dereferenceable(609) %37, i1 noundef zeroext %40)
          to label %44 unwind label %24

44:                                               ; preds = %35
  %45 = getelementptr inbounds nuw %class.btDeformableMultiBodyDynamicsWorld, ptr %8, i32 0, i32 1
  %46 = load ptr, ptr %45, align 8, !tbaa !70
  %47 = load float, ptr %4, align 4, !tbaa !12
  %48 = load ptr, ptr %46, align 8, !tbaa !51
  %49 = getelementptr inbounds ptr, ptr %48, i64 16
  %50 = load ptr, ptr %49, align 8
  invoke void %50(ptr noundef nonnull align 8 dereferenceable(609) %46, float noundef %47)
          to label %51 unwind label %24

51:                                               ; preds = %44
  call void @_ZN14CProfileSampleD1Ev(ptr noundef nonnull align 1 dereferenceable(1) %5) #4
  call void @llvm.lifetime.end.p0(i64 1, ptr %5) #4
  ret void

52:                                               ; preds = %24
  %53 = load ptr, ptr %6, align 8
  %54 = load i32, ptr %7, align 4
  %55 = insertvalue { ptr, i32 } poison, ptr %53, 0
  %56 = insertvalue { ptr, i32 } %55, i32 %54, 1
  resume { ptr, i32 } %56
}