; Function Attrs: mustprogress uwtable
define dso_local void @_ZN34btDeformableMultiBodyDynamicsWorld16solveConstraintsEf(ptr noundef nonnull align 8 dereferenceable(1056) %0, float noundef %1) local_unnamed_addr #4 align 2 personality ptr @__gxx_personality_v0 {
  %3 = alloca %class.CProfileSample, align 1
  call void @llvm.lifetime.start.p0(i64 1, ptr nonnull %3) #21
  call void @_ZN14CProfileSampleC1EPKc(ptr noundef nonnull align 1 dereferenceable(1) %3, ptr noundef nonnull @.str.11)
  %4 = getelementptr inbounds nuw i8, ptr %0, i64 848
  %5 = load ptr, ptr %4, align 8, !tbaa !81
  invoke void @_ZN22btDeformableBodySolver14backupVelocityEv(ptr noundef nonnull align 8 dereferenceable(609) %5)
          to label %6 unwind label %47

6:                                                ; preds = %2
  %7 = load ptr, ptr %4, align 8, !tbaa !81
  %8 = getelementptr inbounds nuw i8, ptr %0, i64 152
  %9 = load ptr, ptr %7, align 8, !tbaa !50
  %10 = getelementptr inbounds nuw i8, ptr %9, i64 152
  %11 = load ptr, ptr %10, align 8
  invoke void %11(ptr noundef nonnull align 8 dereferenceable(609) %7, ptr noundef nonnull align 4 dereferenceable(128) %8)
          to label %.noexc unwind label %47

.noexc:                                           ; preds = %6
  invoke void @_ZN34btDeformableMultiBodyDynamicsWorld15sortConstraintsEv(ptr noundef nonnull align 8 dereferenceable(1056) %0)
          to label %.noexc3 unwind label %47

.noexc3:                                          ; preds = %.noexc
  %12 = getelementptr inbounds nuw i8, ptr %0, i64 580
  %13 = load i32, ptr %12, align 4, !tbaa !206
  %.not.i = icmp eq i32 %13, 0
  %14 = getelementptr inbounds nuw i8, ptr %0, i64 592
  %15 = load ptr, ptr %14, align 8
  %16 = select i1 %.not.i, ptr null, ptr %15
  %17 = load ptr, ptr %0, align 8, !tbaa !50
  %18 = getelementptr inbounds nuw i8, ptr %17, i64 216
  %19 = load ptr, ptr %18, align 8
  %20 = invoke noundef i32 %19(ptr noundef nonnull align 8 dereferenceable(1056) %0)
          to label %.noexc4 unwind label %47

.noexc4:                                          ; preds = %.noexc3
  %21 = getelementptr inbounds nuw i8, ptr %0, i64 296
  %22 = load ptr, ptr %21, align 8
  %23 = getelementptr inbounds nuw i8, ptr %0, i64 1040
  %24 = load ptr, ptr %23, align 8, !tbaa !215
  %25 = getelementptr inbounds nuw i8, ptr %0, i64 284
  %26 = load i32, ptr %25, align 4, !tbaa !202
  %27 = load i32, ptr %12, align 4, !tbaa !206
  %28 = load ptr, ptr %0, align 8, !tbaa !50
  %29 = getelementptr inbounds nuw i8, ptr %28, i64 40
  %30 = load ptr, ptr %29, align 8
  %31 = invoke noundef ptr %30(ptr noundef nonnull align 8 dereferenceable(1056) %0)
          to label %.noexc5 unwind label %47

.noexc5:                                          ; preds = %.noexc4
  %.not3.i = icmp eq i32 %20, 0
  %32 = select i1 %.not3.i, ptr null, ptr %22
  %33 = load ptr, ptr %24, align 8, !tbaa !50
  %34 = getelementptr inbounds nuw i8, ptr %33, i64 24
  %35 = load ptr, ptr %34, align 8
  invoke void %35(ptr noundef nonnull align 8 dereferenceable(264) %24, ptr noundef nonnull %8, ptr noundef %32, i32 noundef %26, ptr noundef %16, i32 noundef %27, ptr noundef %31)
          to label %.noexc6 unwind label %47

.noexc6:                                          ; preds = %.noexc5
  %36 = getelementptr inbounds nuw i8, ptr %0, i64 328
  %37 = load ptr, ptr %36, align 8, !tbaa !367
  %38 = getelementptr inbounds nuw i8, ptr %0, i64 40
  %39 = load ptr, ptr %38, align 8, !tbaa !368
  invoke void @_ZN25btSimulationIslandManager12buildIslandsEP12btDispatcherP16btCollisionWorld(ptr noundef nonnull align 8 dereferenceable(105) %37, ptr noundef %39, ptr noundef nonnull align 8 dereferenceable(1056) %0)
          to label %_ZN34btDeformableMultiBodyDynamicsWorld16setupConstraintsEv.exit unwind label %47

_ZN34btDeformableMultiBodyDynamicsWorld16setupConstraintsEv.exit: ; preds = %.noexc6
  invoke void @_ZN34btDeformableMultiBodyDynamicsWorld23solveContactConstraintsEv(ptr noundef nonnull align 8 dereferenceable(1056) %0)
          to label %.invoke unwind label %47

.invoke:                                          ; preds = %_ZN34btDeformableMultiBodyDynamicsWorld16setupConstraintsEv.exit
  %40 = getelementptr inbounds nuw i8, ptr %0, i64 1034
  %41 = load i8, ptr %40, align 2, !tbaa !178, !range !32, !noundef !33
  %42 = trunc nuw i8 %41 to i1
  %43 = load ptr, ptr %4, align 8, !tbaa !81
  %44 = load ptr, ptr %43, align 8, !tbaa !50
  %. = select i1 %42, i64 224, i64 232
  %45 = getelementptr inbounds nuw i8, ptr %44, i64 %.
  %46 = load ptr, ptr %45, align 8
  invoke void %46(ptr noundef nonnull align 8 dereferenceable(609) %43)
          to label %49 unwind label %47

47:                                               ; preds = %.invoke, %.noexc6, %.noexc5, %.noexc4, %.noexc3, %.noexc, %6, %57, %49, %_ZN34btDeformableMultiBodyDynamicsWorld16setupConstraintsEv.exit, %2
  %48 = landingpad { ptr, i32 }
          cleanup
  call void @_ZN14CProfileSampleD1Ev(ptr noundef nonnull align 1 dereferenceable(1) %3) #21
  call void @llvm.lifetime.end.p0(i64 1, ptr nonnull %3) #21
  resume { ptr, i32 } %48

49:                                               ; preds = %.invoke
  %50 = load ptr, ptr %4, align 8, !tbaa !81
  %51 = getelementptr inbounds nuw i8, ptr %0, i64 1032
  %52 = load i8, ptr %51, align 8, !tbaa !176, !range !32, !noundef !33
  %53 = trunc nuw i8 %52 to i1
  %54 = load ptr, ptr %50, align 8, !tbaa !50
  %55 = getelementptr inbounds nuw i8, ptr %54, i64 160
  %56 = load ptr, ptr %55, align 8
  invoke void %56(ptr noundef nonnull align 8 dereferenceable(609) %50, i1 noundef zeroext %53)
          to label %57 unwind label %47

57:                                               ; preds = %49
  %58 = load ptr, ptr %4, align 8, !tbaa !81
  %59 = load ptr, ptr %58, align 8, !tbaa !50
  %60 = getelementptr inbounds nuw i8, ptr %59, i64 128
  %61 = load ptr, ptr %60, align 8
  invoke void %61(ptr noundef nonnull align 8 dereferenceable(609) %58, float noundef %1)
          to label %62 unwind label %47

62:                                               ; preds = %57
  call void @_ZN14CProfileSampleD1Ev(ptr noundef nonnull align 1 dereferenceable(1) %3) #21
  call void @llvm.lifetime.end.p0(i64 1, ptr nonnull %3) #21
  ret void
}